; Function Attrs: mustprogress uwtable
define dso_local void @_ZN25btHeightfieldTerrainShape16clearAcceleratorEv(ptr nocapture noundef nonnull align 8 dereferenceable(208) %this) local_unnamed_addr #0 align 2 {
entry:
  %m_data.i.i = getelementptr inbounds i8, ptr %this, i64 168
  %0 = load ptr, ptr %m_data.i.i, align 8
  %tobool.not.i.i = icmp eq ptr %0, null
  br i1 %tobool.not.i.i, label %_ZN20btAlignedObjectArrayIN25btHeightfieldTerrainShape5RangeEE5clearEv.exit, label %if.then.i.i

if.then.i.i:                                      ; preds = %entry
  %m_ownsMemory.i.i = getelementptr inbounds i8, ptr %this, i64 176
  %1 = load i8, ptr %m_ownsMemory.i.i, align 8
  %2 = and i8 %1, 1
  %tobool2.not.i.i = icmp eq i8 %2, 0
  br i1 %tobool2.not.i.i, label %_ZN20btAlignedObjectArrayIN25btHeightfieldTerrainShape5RangeEE5clearEv.exit, label %if.then3.i.i

if.then3.i.i:                                     ; preds = %if.then.i.i
  tail call void @_Z21btAlignedFreeInternalPv(ptr noundef nonnull %0)
  br label %_ZN20btAlignedObjectArrayIN25btHeightfieldTerrainShape5RangeEE5clearEv.exit

_ZN20btAlignedObjectArrayIN25btHeightfieldTerrainShape5RangeEE5clearEv.exit: ; preds = %entry, %if.then.i.i, %if.then3.i.i
  %m_size.i.i = getelementptr inbounds i8, ptr %this, i64 156
  %m_ownsMemory.i1.i = getelementptr inbounds i8, ptr %this, i64 176
  store i8 1, ptr %m_ownsMemory.i1.i, align 8
  store ptr null, ptr %m_data.i.i, align 8
  store i32 0, ptr %m_size.i.i, align 4
  %m_capacity.i.i = getelementptr inbounds i8, ptr %this, i64 160
  store i32 0, ptr %m_capacity.i.i, align 8
  ret void
}